; Function Attrs: mustprogress nounwind uwtable
define dso_local void @_ZN5clang14JSONNodeDumper19VisitBinaryOperatorEPKNS_14BinaryOperatorE(ptr noundef nonnull align 8 dereferenceable(1312) %0, ptr nocapture noundef readonly %1) local_unnamed_addr #0 align 2 {
  %3 = alloca %"class.llvm::json::Value", align 8
  %4 = getelementptr inbounds nuw i8, ptr %0, i64 1048
  %5 = load i32, ptr %1, align 8
  %6 = lshr i32 %5, 18
  %7 = and i32 %6, 63
  %8 = tail call { ptr, i64 } @_ZN5clang14BinaryOperator12getOpcodeStrENS_18BinaryOperatorKindE(i32 noundef %7) #20
  %9 = extractvalue { ptr, i64 } %8, 0
  %10 = extractvalue { ptr, i64 } %8, 1
  call void @_ZN4llvm4json5ValueC2ENS_9StringRefE(ptr noundef nonnull align 8 dereferenceable(40) %3, ptr %9, i64 %10)
  call void @_ZN4llvm4json7OStream14attributeBeginENS_9StringRefE(ptr noundef nonnull align 8 dereferenceable(176) %4, ptr nonnull @.str.710, i64 6) #20
  call void @_ZN4llvm4json7OStream5valueERKNS0_5ValueE(ptr noundef nonnull align 8 dereferenceable(176) %4, ptr noundef nonnull align 8 dereferenceable(40) %3) #20
  call void @_ZN4llvm4json7OStream12attributeEndEv(ptr noundef nonnull align 8 dereferenceable(176) %4) #20
  call void @_ZN4llvm4json5Value7destroyEv(ptr noundef nonnull align 8 dereferenceable(40) %3) #20
  ret void
}